(lp1
((I180
I100
t(I0
I0
I128
tp2
tp3
a((I200
I100
tg2
tp4
a((I220
I100
tg2
tp5
a((I240
I100
tg2
tp6
a((I260
I100
tg2
tp7
a((I280
I100
tg2
tp8
a((I300
I100
tg2
tp9
a((I320
I100
tg2
tp10
a((I340
I100
tg2
tp11
a((I360
I100
tg2
tp12
a((I380
I100
tg2
tp13
a((I400
I100
tg2
tp14
a((I420
I100
tg2
tp15
a((I440
I100
tg2
tp16
a((I460
I100
tg2
tp17
a((I480
I100
tg2
tp18
a((I500
I100
tg2
tp19
a((I520
I100
tg2
tp20
a((I540
I100
tg2
tp21
a((I560
I100
tg2
tp22
a((I580
I100
tg2
tp23
a((I600
I100
tg2
tp24
a((I200
I120
tg2
tp25
a((I580
I120
tg2
tp26
a((I220
I140
tg2
tp27
a((I560
I140
tg2
tp28
a((I240
I160
tg2
tp29
a((I540
I160
tg2
tp30
a((I520
I180
tg2
tp31
a((I260
I180
tg2
tp32
a((I280
I180
tg2
tp33
a((I300
I180
tg2
tp34
a((I500
I180
tg2
tp35
a((I480
I180
tg2
tp36
a((I440
I180
tg2
tp37
a((I380
I180
tg2
tp38
a((I360
I180
tg2
tp39
a((I320
I180
tg2
tp40
a((I340
I180
tg2
tp41
a((I420
I180
tg2
tp42
a((I460
I180
tg2
tp43
a((I400
I180
tg2
tp44
a((I220
I120
tg2
tp45
a((I540
I120
tg2
tp46
a((I480
I140
tg2
tp47
a((I460
I160
tg2
tp48
a((I500
I160
tg2
tp49
a((I520
I140
tg2
tp50
a((I500
I120
tg2
tp51
a((I460
I120
tg2
tp52
a((I420
I120
tg2
tp53
a((I380
I120
tg2
tp54
a((I440
I140
tg2
tp55
a((I420
I160
tg2
tp56
a((I380
I160
tg2
tp57
a((I400
I140
tg2
tp58
a((I360
I140
tg2
tp59
a((I340
I120
tg2
tp60
a((I340
I160
tg2
tp61
a((I320
I140
tg2
tp62
a((I300
I120
tg2
tp63
a((I300
I160
tg2
tp64
a((I280
I140
tg2
tp65
a((I260
I120
tg2
tp66
a((I260
I160
tg2
tp67
a((I240
I140
tg2
tp68
a((I520
I160
tg2
tp69
a((I540
I140
tg2
tp70
a((I560
I120
tg2
tp71
a((I520
I120
tg2
tp72
a((I500
I140
tg2
tp73
a((I480
I160
tg2
tp74
a((I440
I160
tg2
tp75
a((I460
I140
tg2
tp76
a((I480
I120
tg2
tp77
a((I440
I120
tg2
tp78
a((I420
I140
tg2
tp79
a((I400
I160
tg2
tp80
a((I360
I160
tg2
tp81
a((I380
I140
tg2
tp82
a((I400
I120
tg2
tp83
a((I360
I120
tg2
tp84
a((I340
I140
tg2
tp85
a((I320
I160
tg2
tp86
a((I280
I160
tg2
tp87
a((I300
I140
tg2
tp88
a((I260
I140
tg2
tp89
a((I240
I120
tg2
tp90
a((I280
I120
tg2
tp91
a((I320
I120
tg2
tp92
a((I200
I110
t(I255
I128
I0
tp93
tp94
a((I240
I110
tg93
tp95
a((I280
I110
tg93
tp96
a((I320
I110
tg93
tp97
a((I360
I110
tg93
tp98
a((I400
I110
tg93
tp99
a((I440
I110
tg93
tp100
a((I480
I110
tg93
tp101
a((I520
I110
tg93
tp102
a((I560
I110
tg93
tp103
a((I220
I130
tg93
tp104
a((I260
I130
tg93
tp105
a((I300
I130
tg93
tp106
a((I340
I130
tg93
tp107
a((I380
I130
tg93
tp108
a((I420
I130
tg93
tp109
a((I460
I130
tg93
tp110
a((I500
I130
tg93
tp111
a((I540
I130
tg93
tp112
a((I240
I150
tg93
tp113
a((I280
I150
tg93
tp114
a((I320
I150
tg93
tp115
a((I260
I170
tg93
tp116
a((I300
I170
tg93
tp117
a((I340
I170
tg93
tp118
a((I380
I170
tg93
tp119
a((I420
I170
tg93
tp120
a((I460
I170
tg93
tp121
a((I500
I170
tg93
tp122
a((I520
I150
tg93
tp123
a((I480
I150
tg93
tp124
a((I440
I150
tg93
tp125
a((I400
I150
tg93
tp126
a((I360
I150
tg93
tp127
a((I380
I190
t(I255
I0
I0
tp128
tp129
a((I380
I200
tg128
tp130
a((I360
I210
tg128
tp131
a((I360
I220
tg128
tp132
a((I340
I230
tg128
tp133
a((I340
I240
tg128
tp134
a((I320
I260
tg128
tp135
a((I320
I250
tg128
tp136
a((I300
I270
tg128
tp137
a((I300
I280
tg128
tp138
a((I280
I290
tg128
tp139
a((I280
I300
tg128
tp140
a((I260
I310
tg128
tp141
a((I260
I320
tg128
tp142
a.