(lp1
((I0
I90
t(I0
I0
I255
tp2
tp3
a((I20
I90
tg2
tp4
a((I40
I90
tg2
tp5
a((I60
I90
tg2
tp6
a((I80
I90
tg2
tp7
a((I100
I90
tg2
tp8
a((I120
I90
tg2
tp9
a((I140
I90
tg2
tp10
a((I160
I90
tg2
tp11
a((I180
I90
tg2
tp12
a((I200
I90
tg2
tp13
a((I220
I90
tg2
tp14
a((I240
I90
tg2
tp15
a((I260
I90
tg2
tp16
a((I280
I90
tg2
tp17
a((I300
I90
tg2
tp18
a((I340
I90
tg2
tp19
a((I380
I90
tg2
tp20
a((I420
I90
tg2
tp21
a((I460
I90
tg2
tp22
a((I500
I90
tg2
tp23
a((I540
I90
tg2
tp24
a((I580
I90
tg2
tp25
a((I620
I90
tg2
tp26
a((I600
I90
tg2
tp27
a((I560
I90
tg2
tp28
a((I520
I90
tg2
tp29
a((I480
I90
tg2
tp30
a((I440
I90
tg2
tp31
a((I400
I90
tg2
tp32
a((I360
I90
tg2
tp33
a((I320
I90
tg2
tp34
a((I20
I110
t(I255
I0
I128
tp35
tp36
a((I600
I110
tg35
tp37
a((I40
I110
tg35
tp38
a((I60
I110
tg35
tp39
a((I80
I110
tg35
tp40
a((I100
I110
tg35
tp41
a((I120
I110
tg35
tp42
a((I140
I110
tg35
tp43
a((I160
I110
tg35
tp44
a((I180
I110
tg35
tp45
a((I200
I110
tg35
tp46
a((I220
I110
tg35
tp47
a((I240
I110
tg35
tp48
a((I260
I110
tg35
tp49
a((I280
I110
tg35
tp50
a((I580
I110
tg35
tp51
a((I540
I110
tg35
tp52
a((I520
I110
tg35
tp53
a((I480
I110
tg35
tp54
a((I440
I110
tg35
tp55
a((I400
I110
tg35
tp56
a((I380
I110
tg35
tp57
a((I340
I110
tg35
tp58
a((I320
I110
tg35
tp59
a((I360
I110
tg35
tp60
a((I420
I110
tg35
tp61
a((I460
I110
tg35
tp62
a((I500
I110
tg35
tp63
a((I560
I110
tg35
tp64
a((I40
I130
t(I255
I128
I0
tp65
tp66
a((I60
I130
tg65
tp67
a((I100
I130
tg65
tp68
a((I80
I130
tg65
tp69
a((I260
I130
tg65
tp70
a((I240
I130
tg65
tp71
a((I220
I130
tg65
tp72
a((I200
I130
tg65
tp73
a((I180
I130
tg65
tp74
a((I120
I130
tg65
tp75
a((I340
I130
tg65
tp76
a((I360
I130
tg65
tp77
a((I380
I130
tg65
tp78
a((I400
I130
tg65
tp79
a((I420
I130
tg65
tp80
a((I440
I130
tg65
tp81
a((I500
I130
tg65
tp82
a((I520
I130
tg65
tp83
a((I540
I130
tg65
tp84
a((I560
I130
tg65
tp85
a((I580
I130
tg65
tp86
a((I480
I130
tg65
tp87
a((I160
I130
tg65
tp88
a((I60
I150
t(I255
I0
I0
tp89
tp90
a((I80
I150
tg89
tp91
a((I100
I150
tg89
tp92
a((I180
I150
tg89
tp93
a((I200
I150
tg89
tp94
a((I220
I150
tg89
tp95
a((I240
I150
tg89
tp96
a((I360
I150
tg89
tp97
a((I380
I150
tg89
tp98
a((I400
I150
tg89
tp99
a((I420
I150
tg89
tp100
a((I500
I150
tg89
tp101
a((I520
I150
tg89
tp102
a((I540
I150
tg89
tp103
a((I560
I150
tg89
tp104
a((I40
I170
t(I255
I128
I0
tp105
tp106
a((I60
I170
tg105
tp107
a((I80
I170
tg105
tp108
a((I100
I170
tg105
tp109
a((I120
I170
tg105
tp110
a((I160
I170
tg105
tp111
a((I180
I170
tg105
tp112
a((I200
I170
tg105
tp113
a((I220
I170
tg105
tp114
a((I240
I170
tg105
tp115
a((I260
I170
tg105
tp116
a((I340
I170
tg105
tp117
a((I360
I170
tg105
tp118
a((I380
I170
tg105
tp119
a((I400
I170
tg105
tp120
a((I420
I170
tg105
tp121
a((I440
I170
tg105
tp122
a((I480
I170
tg105
tp123
a((I500
I170
tg105
tp124
a((I520
I170
tg105
tp125
a((I540
I170
tg105
tp126
a((I560
I170
tg105
tp127
a((I580
I170
tg105
tp128
a((I20
I190
t(I255
I0
I128
tp129
tp130
a((I40
I190
tg129
tp131
a((I80
I190
tg129
tp132
a((I60
I190
tg129
tp133
a((I280
I190
tg129
tp134
a((I260
I190
tg129
tp135
a((I240
I190
tg129
tp136
a((I200
I190
tg129
tp137
a((I180
I190
tg129
tp138
a((I120
I190
tg129
tp139
a((I100
I190
tg129
tp140
a((I140
I190
tg129
tp141
a((I160
I190
tg129
tp142
a((I220
I190
tg129
tp143
a((I320
I190
tg129
tp144
a((I340
I190
tg129
tp145
a((I600
I190
tg129
tp146
a((I580
I190
tg129
tp147
a((I540
I190
tg129
tp148
a((I500
I190
tg129
tp149
a((I480
I190
tg129
tp150
a((I440
I190
tg129
tp151
a((I400
I190
tg129
tp152
a((I360
I190
tg129
tp153
a((I380
I190
tg129
tp154
a((I420
I190
tg129
tp155
a((I460
I190
tg129
tp156
a((I520
I190
tg129
tp157
a((I560
I190
tg129
tp158
a((I0
I210
t(I0
I0
I255
tp159
tp160
a((I20
I210
tg159
tp161
a((I40
I210
tg159
tp162
a((I80
I210
tg159
tp163
a((I120
I210
tg159
tp164
a((I160
I210
tg159
tp165
a((I200
I210
tg159
tp166
a((I240
I210
tg159
tp167
a((I260
I210
tg159
tp168
a((I280
I210
tg159
tp169
a((I320
I210
tg159
tp170
a((I380
I210
tg159
tp171
a((I620
I210
tg159
tp172
a((I600
I210
tg159
tp173
a((I580
I210
tg159
tp174
a((I540
I210
tg159
tp175
a((I500
I210
tg159
tp176
a((I480
I210
tg159
tp177
a((I420
I210
tg159
tp178
a((I460
I210
tg159
tp179
a((I440
I210
tg159
tp180
a((I400
I210
tg159
tp181
a((I360
I210
tg159
tp182
a((I340
I210
tg159
tp183
a((I560
I210
tg159
tp184
a((I520
I210
tg159
tp185
a((I300
I210
tg159
tp186
a((I220
I210
tg159
tp187
a((I180
I210
tg159
tp188
a((I140
I210
tg159
tp189
a((I100
I210
tg159
tp190
a((I60
I210
tg159
tp191
a.