(lp1
((I0
I60
t(I0
I0
I255
tp2
tp3
a((I20
I70
tg2
tp4
a((I40
I60
tg2
tp5
a((I60
I70
tg2
tp6
a((I80
I60
tg2
tp7
a((I100
I70
tg2
tp8
a((I120
I60
tg2
tp9
a((I140
I70
tg2
tp10
a((I160
I60
tg2
tp11
a((I180
I70
tg2
tp12
a((I200
I60
tg2
tp13
a((I220
I70
tg2
tp14
a((I240
I60
tg2
tp15
a((I260
I70
tg2
tp16
a((I280
I60
tg2
tp17
a((I300
I70
tg2
tp18
a((I320
I60
tg2
tp19
a((I340
I70
tg2
tp20
a((I360
I60
tg2
tp21
a((I380
I70
tg2
tp22
a((I400
I60
tg2
tp23
a((I420
I70
tg2
tp24
a((I440
I60
tg2
tp25
a((I460
I70
tg2
tp26
a((I480
I60
tg2
tp27
a((I500
I70
tg2
tp28
a((I520
I60
tg2
tp29
a((I540
I70
tg2
tp30
a((I560
I60
tg2
tp31
a((I580
I70
tg2
tp32
a((I600
I60
tg2
tp33
a((I620
I70
tg2
tp34
a((I220
I100
t(I255
I128
I64
tp35
tp36
a((I240
I100
tg35
tp37
a((I260
I100
tg35
tp38
a((I280
I100
tg35
tp39
a((I300
I100
tg35
tp40
a((I340
I100
tg35
tp41
a((I320
I100
tg35
tp42
a((I360
I100
tg35
tp43
a((I240
I120
tg35
tp44
a((I260
I120
tg35
tp45
a((I280
I120
tg35
tp46
a((I300
I120
tg35
tp47
a((I320
I120
tg35
tp48
a((I340
I120
tg35
tp49
a((I280
I140
tg35
tp50
a((I300
I140
tg35
tp51
a((I380
I100
tg35
tp52
a((I360
I120
tg35
tp53
a((I320
I140
tg35
tp54
a((I60
I200
t(I0
I255
I0
tp55
tp56
a((I80
I200
tg55
tp57
a((I100
I210
tg55
tp58
a((I100
I220
tg55
tp59
a((I100
I230
tg55
tp60
a((I40
I210
tg55
tp61
a((I40
I220
tg55
tp62
a((I40
I230
tg55
tp63
a((I60
I240
tg55
tp64
a((I80
I240
tg55
tp65
a((I60
I210
tg55
tp66
a((I60
I230
tg55
tp67
a((I80
I220
tg55
tp68
a((I80
I210
tg55
tp69
a((I60
I210
tg55
tp70
a((I60
I220
tg55
tp71
a((I80
I230
tg55
tp72
a((I400
I250
tg55
tp73
a((I420
I250
tg55
tp74
a((I380
I260
tg55
tp75
a((I380
I270
tg55
tp76
a((I380
I280
tg55
tp77
a((I400
I280
tg55
tp78
a((I440
I260
tg55
tp79
a((I440
I270
tg55
tp80
a((I440
I280
tg55
tp81
a((I420
I280
tg55
tp82
a((I420
I270
tg55
tp83
a((I400
I260
tg55
tp84
a((I420
I260
tg55
tp85
a((I400
I270
tg55
tp86
a((I400
I290
tg55
tp87
a((I420
I290
tg55
tp88
a((I520
I130
tg55
tp89
a((I540
I130
tg55
tp90
a((I500
I140
tg55
tp91
a((I500
I150
tg55
tp92
a((I500
I160
tg55
tp93
a((I560
I140
tg55
tp94
a((I560
I160
tg55
tp95
a((I560
I150
tg55
tp96
a((I520
I170
tg55
tp97
a((I540
I170
tg55
tp98
a((I540
I160
tg55
tp99
a((I520
I160
tg55
tp100
a((I520
I140
tg55
tp101
a((I540
I140
tg55
tp102
a((I540
I150
tg55
tp103
a((I520
I150
tg55
tp104
a((I20
I170
t(I0
I0
I255
tp105
tp106
a((I40
I180
tg105
tp107
a((I60
I170
tg105
tp108
a((I80
I180
tg105
tp109
a((I100
I170
tg105
tp110
a((I120
I180
tg105
tp111
a((I20
I180
t(I255
I255
I255
tp112
tp113
a((I60
I180
tg112
tp114
a((I100
I180
tg112
tp115
a((I500
I110
t(I0
I0
I255
tp116
tp117
a((I520
I100
tg116
tp118
a((I540
I110
tg116
tp119
a((I560
I100
tg116
tp120
a((I580
I110
tg116
tp121
a((I480
I100
tg116
tp122
a((I480
I110
t(I255
I255
I255
tp123
tp124
a((I520
I110
tg123
tp125
a((I560
I110
tg123
tp126
a((I360
I230
t(I0
I0
I255
tp127
tp128
a((I380
I220
tg127
tp129
a((I400
I230
tg127
tp130
a((I420
I220
tg127
tp131
a((I440
I230
tg127
tp132
a((I460
I220
tg127
tp133
a((I380
I230
t(I255
I255
I255
tp134
tp135
a((I420
I230
tg134
tp136
a((I460
I230
tg134
tp137
a((I620
I330
t(I255
I255
I0
tp138
tp139
a((I600
I330
tg138
tp140
a((I580
I330
tg138
tp141
a((I560
I330
tg138
tp142
a((I540
I330
tg138
tp143
a((I520
I330
tg138
tp144
a((I500
I330
tg138
tp145
a((I480
I330
tg138
tp146
a((I460
I330
tg138
tp147
a((I440
I330
tg138
tp148
a((I420
I330
tg138
tp149
a((I400
I330
tg138
tp150
a((I380
I330
tg138
tp151
a((I360
I330
tg138
tp152
a((I340
I330
tg138
tp153
a((I320
I330
tg138
tp154
a((I300
I330
tg138
tp155
a((I280
I330
tg138
tp156
a((I260
I330
tg138
tp157
a((I240
I330
tg138
tp158
a((I220
I330
tg138
tp159
a((I200
I330
tg138
tp160
a((I160
I330
tg138
tp161
a((I180
I330
tg138
tp162
a((I140
I330
tg138
tp163
a((I120
I330
tg138
tp164
a((I100
I330
tg138
tp165
a((I80
I330
tg138
tp166
a((I60
I330
tg138
tp167
a((I40
I330
tg138
tp168
a((I20
I330
tg138
tp169
a((I0
I330
tg138
tp170
a((I0
I320
t(I0
I0
I255
tp171
tp172
a((I20
I310
tg171
tp173
a((I40
I320
tg171
tp174
a((I60
I310
tg171
tp175
a((I100
I310
tg171
tp176
a((I120
I320
tg171
tp177
a((I140
I310
tg171
tp178
a((I160
I320
tg171
tp179
a((I180
I310
tg171
tp180
a((I200
I320
tg171
tp181
a((I220
I310
tg171
tp182
a((I240
I320
tg171
tp183
a((I260
I310
tg171
tp184
a((I280
I320
tg171
tp185
a((I300
I310
tg171
tp186
a((I320
I320
tg171
tp187
a((I340
I310
tg171
tp188
a((I360
I320
tg171
tp189
a((I380
I310
tg171
tp190
a((I400
I320
tg171
tp191
a((I420
I310
tg171
tp192
a((I440
I320
tg171
tp193
a((I460
I310
tg171
tp194
a((I480
I320
tg171
tp195
a((I500
I310
tg171
tp196
a((I520
I320
tg171
tp197
a((I540
I310
tg171
tp198
a((I560
I320
tg171
tp199
a((I580
I310
tg171
tp200
a((I600
I320
tg171
tp201
a((I620
I310
tg171
tp202
a((I20
I320
t(I255
I255
I255
tp203
tp204
a((I60
I320
tg203
tp205
a((I100
I320
tg203
tp206
a((I100
I320
tg203
tp207
a((I140
I320
tg203
tp208
a((I180
I320
tg203
tp209
a((I220
I320
tg203
tp210
a((I260
I320
tg203
tp211
a((I300
I320
tg203
tp212
a((I340
I320
tg203
tp213
a((I380
I320
tg203
tp214
a((I420
I320
tg203
tp215
a((I460
I320
tg203
tp216
a((I500
I320
tg203
tp217
a((I540
I320
tg203
tp218
a((I580
I320
tg203
tp219
a((I620
I320
tg203
tp220
a((I80
I320
t(I0
I0
I255
tp221
tp222
a.