(lp1
((I80
I150
t(I192
I192
I192
tp2
tp3
a((I340
I250
tg2
tp4
a((I480
I180
tg2
tp5
a((I260
I110
tg2
tp6
a((I140
I220
tg2
tp7
a((I500
I280
tg2
tp8
a((I580
I130
tg2
tp9
a((I480
I100
tg2
tp10
a((I340
I190
tg2
tp11
a((I200
I260
tg2
tp12
a((I220
I140
tg2
tp13
a((I80
I340
tg2
tp14
a((I300
I220
tg2
tp15
a((I80
I200
tg2
tp16
a((I280
I310
tg2
tp17
a((I420
I220
tg2
tp18
a((I380
I70
tg2
tp19
a((I120
I70
tg2
tp20
a((I60
I200
tg2
tp21
a((I180
I140
tg2
tp22
a((I60
I100
tg2
tp23
a((I80
I330
t(I64
I0
I64
tp24
tp25
a((I80
I310
tg24
tp26
a((I80
I250
tg24
tp27
a((I80
I230
tg24
tp28
a((I80
I210
tg24
tp29
a((I60
I190
tg24
tp30
a((I60
I170
tg24
tp31
a((I80
I160
tg24
tp32
a((I80
I140
tg24
tp33
a((I60
I130
tg24
tp34
a((I60
I110
tg24
tp35
a((I80
I90
tg24
tp36
a((I100
I80
tg24
tp37
a((I140
I80
tg24
tp38
a((I160
I90
tg24
tp39
a((I160
I110
tg24
tp40
a((I180
I120
tg24
tp41
a((I180
I160
tg24
tp42
a((I160
I180
tg24
tp43
a((I140
I200
tg24
tp44
a((I160
I240
tg24
tp45
a((I180
I250
tg24
tp46
a((I220
I270
tg24
tp47
a((I220
I290
tg24
tp48
a((I240
I300
tg24
tp49
a((I260
I300
tg24
tp50
a((I300
I300
tg24
tp51
a((I320
I300
tg24
tp52
a((I340
I290
tg24
tp53
a((I360
I270
tg24
tp54
a((I340
I260
tg24
tp55
a((I320
I240
tg24
tp56
a((I300
I230
tg24
tp57
a((I320
I210
tg24
tp58
a((I340
I200
tg24
tp59
a((I340
I180
tg24
tp60
a((I340
I160
tg24
tp61
a((I340
I140
tg24
tp62
a((I360
I120
tg24
tp63
a((I380
I100
tg24
tp64
a((I380
I80
tg24
tp65
a((I400
I70
tg24
tp66
a((I420
I70
tg24
tp67
a((I440
I80
tg24
tp68
a((I460
I90
tg24
tp69
a((I500
I100
tg24
tp70
a((I520
I110
tg24
tp71
a((I540
I120
tg24
tp72
a((I560
I130
tg24
tp73
a((I540
I140
tg24
tp74
a((I520
I150
tg24
tp75
a((I500
I160
tg24
tp76
a((I480
I170
tg24
tp77
a((I480
I190
tg24
tp78
a((I460
I200
tg24
tp79
a((I440
I210
tg24
tp80
a((I440
I230
tg24
tp81
a((I460
I240
tg24
tp82
a((I480
I250
tg24
tp83
a((I500
I260
tg24
tp84
a((I200
I140
tg24
tp85
a((I240
I130
tg24
tp86
a((I260
I120
tg24
tp87
a((I360
I70
tg24
tp88
a((I340
I80
tg24
tp89
a((I320
I90
tg24
tp90
a((I300
I100
tg24
tp91
a((I280
I110
tg24
tp92
a((I340
I170
tg24
tp93
a((I340
I150
tg24
tp94
a((I360
I130
tg24
tp95
a((I380
I110
tg24
tp96
a((I380
I90
tg24
tp97
a((I80
I320
tg24
tp98
a((I80
I300
tg24
tp99
a((I80
I290
tg24
tp100
a((I80
I280
tg24
tp101
a((I80
I270
tg24
tp102
a((I80
I260
tg24
tp103
a((I80
I240
tg24
tp104
a((I80
I220
tg24
tp105
a((I60
I180
tg24
tp106
a((I60
I120
tg24
tp107
a((I160
I100
tg24
tp108
a((I180
I130
tg24
tp109
a((I180
I150
tg24
tp110
a((I160
I170
tg24
tp111
a((I140
I190
tg24
tp112
a((I140
I210
tg24
tp113
a((I140
I230
tg24
tp114
a((I220
I280
tg24
tp115
a((I360
I280
tg24
tp116
a((I300
I210
tg24
tp117
a((I200
I250
tg24
tp118
a((I200
I270
tg24
tp119
a((I340
I240
tg24
tp120
a((I500
I270
tg24
tp121
a((I100
I340
tg24
tp122
a((I120
I330
tg24
tp123
a((I140
I330
tg24
tp124
a((I160
I330
tg24
tp125
a((I180
I320
tg24
tp126
a((I200
I320
tg24
tp127
a((I220
I320
tg24
tp128
a((I240
I310
tg24
tp129
a((I260
I310
tg24
tp130
a((I480
I290
tg24
tp131
a((I460
I300
tg24
tp132
a((I440
I310
tg24
tp133
a((I420
I310
tg24
tp134
a((I400
I310
tg24
tp135
a((I380
I310
tg24
tp136
a((I360
I310
tg24
tp137
a((I340
I310
tg24
tp138
a((I300
I310
tg24
tp139
a((I320
I310
tg24
tp140
a((I100
I200
t(I0
I128
I0
tp141
tp142
a((I120
I200
tg141
tp143
a((I80
I170
tg141
tp144
a((I80
I180
tg141
tp145
a((I80
I190
tg141
tp146
a((I100
I190
tg141
tp147
a((I120
I190
tg141
tp148
a((I140
I180
tg141
tp149
a((I120
I180
tg141
tp150
a((I140
I170
tg141
tp151
a((I140
I160
tg141
tp152
a((I160
I160
tg141
tp153
a((I160
I150
tg141
tp154
a((I160
I130
tg141
tp155
a((I160
I140
tg141
tp156
a((I160
I120
tg141
tp157
a((I140
I120
tg141
tp158
a((I140
I110
tg141
tp159
a((I140
I100
tg141
tp160
a((I140
I90
tg141
tp161
a((I120
I90
tg141
tp162
a((I120
I80
tg141
tp163
a((I100
I90
tg141
tp164
a((I80
I100
tg141
tp165
a((I100
I100
tg141
tp166
a((I80
I110
tg141
tp167
a((I80
I120
tg141
tp168
a((I80
I130
tg141
tp169
a((I100
I130
tg141
tp170
a((I100
I140
tg141
tp171
a((I100
I150
tg141
tp172
a((I100
I160
tg141
tp173
a((I100
I170
tg141
tp174
a((I100
I210
tg141
tp175
a((I100
I230
tg141
tp176
a((I100
I220
tg141
tp177
a((I120
I210
tg141
tp178
a((I120
I230
tg141
tp179
a((I120
I220
tg141
tp180
a((I120
I240
tg141
tp181
a((I140
I240
tg141
tp182
a((I140
I250
tg141
tp183
a((I160
I250
tg141
tp184
a((I180
I260
tg141
tp185
a((I180
I270
tg141
tp186
a((I180
I280
tg141
tp187
a((I200
I280
tg141
tp188
a((I200
I290
tg141
tp189
a((I200
I300
tg141
tp190
a((I220
I300
tg141
tp191
a((I220
I310
tg141
tp192
a((I200
I310
tg141
tp193
a((I180
I310
tg141
tp194
a((I160
I310
tg141
tp195
a((I160
I320
tg141
tp196
a((I140
I320
tg141
tp197
a((I120
I320
tg141
tp198
a((I100
I320
tg141
tp199
a((I100
I330
tg141
tp200
a((I100
I310
tg141
tp201
a((I100
I300
tg141
tp202
a((I100
I290
tg141
tp203
a((I100
I270
tg141
tp204
a((I100
I260
tg141
tp205
a((I100
I240
tg141
tp206
a((I100
I280
tg141
tp207
a((I100
I250
tg141
tp208
a((I240
I290
tg141
tp209
a((I260
I290
tg141
tp210
a((I280
I290
tg141
tp211
a((I280
I300
tg141
tp212
a((I300
I290
tg141
tp213
a((I320
I290
tg141
tp214
a((I320
I250
tg141
tp215
a((I300
I250
tg141
tp216
a((I300
I240
tg141
tp217
a((I280
I240
tg141
tp218
a((I280
I230
tg141
tp219
a((I280
I220
tg141
tp220
a((I280
I210
tg141
tp221
a((I280
I200
tg141
tp222
a((I300
I200
tg141
tp223
a((I320
I200
tg141
tp224
a((I320
I190
tg141
tp225
a((I320
I180
tg141
tp226
a((I320
I170
tg141
tp227
a((I320
I160
tg141
tp228
a((I320
I140
tg141
tp229
a((I320
I150
tg141
tp230
a((I320
I130
tg141
tp231
a((I340
I130
tg141
tp232
a((I340
I120
tg141
tp233
a((I340
I110
tg141
tp234
a((I360
I110
tg141
tp235
a((I360
I100
tg141
tp236
a((I360
I80
tg141
tp237
a((I360
I90
tg141
tp238
a((I340
I90
tg141
tp239
a((I340
I100
tg141
tp240
a((I320
I100
tg141
tp241
a((I320
I110
tg141
tp242
a((I300
I110
tg141
tp243
a((I300
I120
tg141
tp244
a((I280
I120
tg141
tp245
a((I280
I130
tg141
tp246
a((I260
I130
tg141
tp247
a((I260
I140
tg141
tp248
a((I240
I140
tg141
tp249
a((I240
I150
tg141
tp250
a((I220
I150
tg141
tp251
a((I200
I150
tg141
tp252
a((I200
I160
tg141
tp253
a((I180
I170
tg141
tp254
a((I200
I170
tg141
tp255
a((I180
I180
tg141
tp256
a((I180
I190
tg141
tp257
a((I160
I190
tg141
tp258
a((I160
I200
tg141
tp259
a((I160
I220
tg141
tp260
a((I160
I230
tg141
tp261
a((I160
I210
tg141
tp262
a((I180
I230
tg141
tp263
a((I180
I240
tg141
tp264
a((I200
I240
tg141
tp265
a((I220
I250
tg141
tp266
a((I220
I240
tg141
tp267
a((I220
I260
tg141
tp268
a((I240
I260
tg141
tp269
a((I240
I280
tg141
tp270
a((I240
I270
tg141
tp271
a((I340
I300
tg141
tp272
a((I360
I290
t(I192
I192
I192
ttp273
a((I320
I260
t(I0
I128
I0
tp274
tp275
a((I320
I270
tg274
tp276
a((I340
I270
tg274
tp277
a((I340
I280
tg274
tp278
a((I320
I280
tg274
tp279
a((I360
I300
tg274
tp280
a((I380
I290
tg274
tp281
a((I380
I300
tg274
tp282
a((I400
I300
tg274
tp283
a((I380
I280
tg274
tp284
a((I380
I270
tg274
tp285
a((I380
I260
tg274
tp286
a((I360
I260
tg274
tp287
a((I360
I250
tg274
tp288
a((I360
I240
tg274
tp289
a((I360
I230
tg274
tp290
a((I340
I230
tg274
tp291
a((I320
I230
tg274
tp292
a((I320
I220
tg274
tp293
a((I340
I210
tg274
tp294
a((I340
I220
tg274
tp295
a((I360
I210
tg274
tp296
a((I360
I200
tg274
tp297
a((I360
I190
tg274
tp298
a((I360
I180
tg274
tp299
a((I360
I170
tg274
tp300
a((I360
I160
tg274
tp301
a((I360
I150
tg274
tp302
a((I360
I140
tg274
tp303
a((I380
I140
tg274
tp304
a((I380
I130
tg274
tp305
a((I380
I120
tg274
tp306
a((I400
I110
tg274
tp307
a((I400
I90
tg274
tp308
a((I400
I80
tg274
tp309
a((I400
I100
tg274
tp310
a((I400
I120
tg274
tp311
a((I420
I80
tg274
tp312
a((I420
I90
tg274
tp313
a((I440
I90
tg274
tp314
a((I440
I100
tg274
tp315
a((I460
I100
tg274
tp316
a((I460
I110
tg274
tp317
a((I480
I110
tg274
tp318
a((I500
I110
tg274
tp319
a((I500
I120
tg274
tp320
a((I520
I120
tg274
tp321
a((I520
I130
tg274
tp322
a((I540
I130
tg274
tp323
a((I520
I140
tg274
tp324
a((I500
I140
tg274
tp325
a((I500
I150
tg274
tp326
a((I480
I150
tg274
tp327
a((I480
I160
tg274
tp328
a((I460
I160
tg274
tp329
a((I460
I170
tg274
tp330
a((I460
I180
tg274
tp331
a((I460
I190
tg274
tp332
a((I440
I190
tg274
tp333
a((I440
I200
tg274
tp334
a((I420
I200
tg274
tp335
a((I420
I210
tg274
tp336
a((I400
I210
tg274
tp337
a((I400
I220
tg274
tp338
a((I400
I230
tg274
tp339
a((I420
I230
tg274
tp340
a((I440
I240
tg274
tp341
a((I420
I240
tg274
tp342
a((I440
I250
tg274
tp343
a((I460
I250
tg274
tp344
a((I460
I260
tg274
tp345
a((I480
I260
tg274
tp346
a((I480
I270
tg274
tp347
a((I480
I280
tg274
tp348
a((I460
I290
tg274
tp349
a((I460
I280
tg274
tp350
a((I440
I290
tg274
tp351
a((I440
I300
tg274
tp352
a((I420
I300
tg274
tp353
a((I100
I180
t(I255
I128
I0
tp354
tp355
a((I120
I170
tg354
tp356
a((I120
I160
tg354
tp357
a((I120
I150
tg354
tp358
a((I120
I140
tg354
tp359
a((I120
I120
tg354
tp360
a((I120
I100
tg354
tp361
a((I100
I110
tg354
tp362
a((I120
I110
tg354
tp363
a((I100
I120
tg354
tp364
a((I120
I130
tg354
tp365
a((I140
I130
tg354
tp366
a((I140
I140
tg354
tp367
a((I140
I150
tg354
tp368
a((I120
I250
tg354
tp369
a((I120
I260
tg354
tp370
a((I120
I270
tg354
tp371
a((I120
I310
tg354
tp372
a((I140
I310
tg354
tp373
a((I160
I300
tg354
tp374
a((I180
I300
tg354
tp375
a((I180
I290
tg354
tp376
a((I160
I290
tg354
tp377
a((I160
I280
tg354
tp378
a((I160
I270
tg354
tp379
a((I140
I270
tg354
tp380
a((I140
I260
tg354
tp381
a((I160
I260
t(I0
I128
I0
ttp382
a((I140
I300
t(I255
I128
I0
tp383
tp384
a((I120
I300
tg383
tp385
a((I120
I280
tg383
tp386
a((I120
I290
tg383
tp387
a((I140
I290
tg383
tp388
a((I140
I280
tg383
tp389
a((I320
I120
tg383
tp390
a((I300
I130
tg383
tp391
a((I300
I140
tg383
tp392
a((I300
I150
tg383
tp393
a((I300
I160
tg383
tp394
a((I300
I170
tg383
tp395
a((I300
I180
tg383
tp396
a((I300
I190
tg383
tp397
a((I280
I190
tg383
tp398
a((I280
I180
tg383
tp399
a((I280
I170
tg383
tp400
a((I280
I160
tg383
tp401
a((I280
I140
tg383
tp402
a((I280
I150
tg383
tp403
a((I260
I150
tg383
tp404
a((I260
I160
tg383
tp405
a((I240
I160
tg383
tp406
a((I220
I160
tg383
tp407
a((I220
I170
tg383
tp408
a((I220
I180
tg383
tp409
a((I200
I180
tg383
tp410
a((I200
I190
tg383
tp411
a((I200
I200
tg383
tp412
a((I180
I200
tg383
tp413
a((I180
I220
tg383
tp414
a((I200
I220
tg383
tp415
a((I180
I210
tg383
tp416
a((I200
I230
tg383
tp417
a((I220
I230
tg383
tp418
a((I240
I230
tg383
tp419
a((I240
I240
tg383
tp420
a((I240
I250
tg383
tp421
a((I260
I250
tg383
tp422
a((I260
I260
tg383
tp423
a((I260
I270
tg383
tp424
a((I260
I280
tg383
tp425
a((I280
I280
tg383
tp426
a((I300
I280
tg383
tp427
a((I300
I270
tg383
tp428
a((I300
I260
tg383
tp429
a((I280
I260
tg383
tp430
a((I280
I250
tg383
tp431
a((I260
I190
tg383
tp432
a((I260
I200
tg383
tp433
a((I260
I210
tg383
tp434
a((I260
I220
tg383
tp435
a((I260
I230
tg383
tp436
a((I260
I240
tg383
tp437
a((I280
I270
tg383
tp438
a((I200
I210
tg383
tp439
a((I220
I190
tg383
tp440
a((I220
I200
tg383
tp441
a((I220
I210
tg383
tp442
a((I220
I220
tg383
tp443
a((I240
I220
tg383
tp444
a((I240
I210
tg383
tp445
a((I240
I200
tg383
tp446
a((I240
I190
tg383
tp447
a((I240
I180
tg383
tp448
a((I240
I170
tg383
tp449
a((I260
I170
tg383
tp450
a((I260
I180
tg383
tp451
a((I400
I290
tg383
tp452
a((I420
I290
tg383
tp453
a((I420
I280
tg383
tp454
a((I440
I280
tg383
tp455
a((I460
I270
tg383
tp456
a((I440
I270
tg383
tp457
a((I440
I260
tg383
tp458
a((I420
I260
tg383
tp459
a((I420
I250
tg383
tp460
a((I400
I250
tg383
tp461
a((I400
I240
tg383
tp462
a((I380
I240
tg383
tp463
a((I380
I230
tg383
tp464
a((I380
I220
tg383
tp465
a((I360
I220
tg383
tp466
a((I380
I210
tg383
tp467
a((I380
I190
tg383
tp468
a((I380
I180
tg383
tp469
a((I380
I160
tg383
tp470
a((I380
I150
tg383
tp471
a((I380
I250
tg383
tp472
a((I400
I260
tg383
tp473
a((I400
I270
tg383
tp474
a((I400
I280
tg383
tp475
a((I420
I270
tg383
tp476
a((I380
I200
tg383
tp477
a((I380
I170
tg383
tp478
a((I400
I150
tg383
tp479
a((I400
I140
tg383
tp480
a((I400
I130
tg383
tp481
a((I420
I130
tg383
tp482
a((I420
I110
tg383
tp483
a((I420
I100
tg383
tp484
a((I420
I120
tg383
tp485
a((I440
I110
tg383
tp486
a((I440
I120
tg383
tp487
a((I460
I120
tg383
tp488
a((I480
I120
tg383
tp489
a((I480
I130
tg383
tp490
a((I500
I130
tg383
tp491
a((I480
I140
tg383
tp492
a((I460
I140
tg383
tp493
a((I460
I150
tg383
tp494
a((I440
I150
tg383
tp495
a((I440
I160
tg383
tp496
a((I440
I170
tg383
tp497
a((I440
I180
tg383
tp498
a((I420
I180
tg383
tp499
a((I420
I190
tg383
tp500
a((I400
I190
tg383
tp501
a((I400
I200
tg383
tp502
a((I400
I180
tg383
tp503
a((I400
I170
tg383
tp504
a((I400
I160
tg383
tp505
a((I420
I150
tg383
tp506
a((I420
I170
tg383
tp507
a((I420
I160
tg383
tp508
a((I420
I140
tg383
tp509
a((I440
I140
tg383
tp510
a((I440
I130
tg383
tp511
a((I460
I130
tg383
tp512
a.