(lp1
((I80
I150
t(I192
I192
I192
tp2
tp3
a((I340
I250
tg2
tp4
a((I480
I180
tg2
tp5
a((I260
I110
tg2
tp6
a((I140
I220
tg2
tp7
a((I500
I280
tg2
tp8
a((I580
I130
tg2
tp9
a((I480
I100
tg2
tp10
a((I340
I190
tg2
tp11
a((I200
I260
tg2
tp12
a((I220
I140
tg2
tp13
a((I80
I340
tg2
tp14
a((I300
I220
tg2
tp15
a((I80
I200
tg2
tp16
a((I280
I310
tg2
tp17
a((I420
I220
tg2
tp18
a((I380
I70
tg2
tp19
a((I120
I70
tg2
tp20
a((I60
I200
tg2
tp21
a((I180
I140
tg2
tp22
a((I60
I100
tg2
tp23
a((I80
I330
t(I64
I0
I64
tp24
tp25
a((I80
I310
tg24
tp26
a((I80
I250
tg24
tp27
a((I80
I230
tg24
tp28
a((I80
I210
tg24
tp29
a((I60
I190
tg24
tp30
a((I60
I170
tg24
tp31
a((I80
I160
tg24
tp32
a((I80
I140
tg24
tp33
a((I60
I130
tg24
tp34
a((I60
I110
tg24
tp35
a((I80
I90
tg24
tp36
a((I100
I80
tg24
tp37
a((I140
I80
tg24
tp38
a((I160
I90
tg24
tp39
a((I160
I110
tg24
tp40
a((I180
I120
tg24
tp41
a((I180
I160
tg24
tp42
a((I160
I180
tg24
tp43
a((I140
I200
tg24
tp44
a((I160
I240
tg24
tp45
a((I180
I250
tg24
tp46
a((I220
I270
tg24
tp47
a((I220
I290
tg24
tp48
a((I240
I300
tg24
tp49
a((I260
I300
tg24
tp50
a((I300
I300
tg24
tp51
a((I320
I300
tg24
tp52
a((I340
I290
tg24
tp53
a((I360
I270
tg24
tp54
a((I340
I260
tg24
tp55
a((I320
I240
tg24
tp56
a((I300
I230
tg24
tp57
a((I320
I210
tg24
tp58
a((I340
I200
tg24
tp59
a((I340
I180
tg24
tp60
a((I340
I160
tg24
tp61
a((I340
I140
tg24
tp62
a((I360
I120
tg24
tp63
a((I380
I100
tg24
tp64
a((I380
I80
tg24
tp65
a((I400
I70
tg24
tp66
a((I420
I70
tg24
tp67
a((I440
I80
tg24
tp68
a((I460
I90
tg24
tp69
a((I500
I100
tg24
tp70
a((I520
I110
tg24
tp71
a((I540
I120
tg24
tp72
a((I560
I130
tg24
tp73
a((I540
I140
tg24
tp74
a((I520
I150
tg24
tp75
a((I500
I160
tg24
tp76
a((I480
I170
tg24
tp77
a((I480
I190
tg24
tp78
a((I460
I200
tg24
tp79
a((I440
I210
tg24
tp80
a((I440
I230
tg24
tp81
a((I460
I240
tg24
tp82
a((I480
I250
tg24
tp83
a((I500
I260
tg24
tp84
a((I200
I140
tg24
tp85
a((I240
I130
tg24
tp86
a((I260
I120
tg24
tp87
a((I360
I70
tg24
tp88
a((I340
I80
tg24
tp89
a((I320
I90
tg24
tp90
a((I300
I100
tg24
tp91
a((I280
I110
tg24
tp92
a((I340
I170
tg24
tp93
a((I340
I150
tg24
tp94
a((I360
I130
tg24
tp95
a((I380
I110
tg24
tp96
a((I380
I90
tg24
tp97
a((I80
I320
tg24
tp98
a((I80
I300
tg24
tp99
a((I80
I290
tg24
tp100
a((I80
I280
tg24
tp101
a((I80
I270
tg24
tp102
a((I80
I260
tg24
tp103
a((I80
I240
tg24
tp104
a((I80
I220
tg24
tp105
a((I60
I180
tg24
tp106
a((I60
I120
tg24
tp107
a((I160
I100
tg24
tp108
a((I180
I130
tg24
tp109
a((I180
I150
tg24
tp110
a((I160
I170
tg24
tp111
a((I140
I190
tg24
tp112
a((I140
I210
tg24
tp113
a((I140
I230
tg24
tp114
a((I220
I280
tg24
tp115
a((I360
I280
tg24
tp116
a((I300
I210
tg24
tp117
a((I200
I250
tg24
tp118
a((I200
I270
tg24
tp119
a((I340
I240
tg24
tp120
a((I500
I270
tg24
tp121
a((I100
I340
tg24
tp122
a((I120
I330
tg24
tp123
a((I140
I330
tg24
tp124
a((I160
I330
tg24
tp125
a((I180
I320
tg24
tp126
a((I200
I320
tg24
tp127
a((I220
I320
tg24
tp128
a((I240
I310
tg24
tp129
a((I260
I310
tg24
tp130
a((I480
I290
tg24
tp131
a((I460
I300
tg24
tp132
a((I440
I310
tg24
tp133
a((I420
I310
tg24
tp134
a((I400
I310
tg24
tp135
a((I380
I310
tg24
tp136
a((I360
I310
tg24
tp137
a((I340
I310
tg24
tp138
a((I300
I310
tg24
tp139
a((I320
I310
tg24
tp140
a((I100
I200
t(I0
I128
I0
tp141
tp142
a((I120
I200
tg141
tp143
a((I80
I170
tg141
tp144
a((I80
I180
tg141
tp145
a((I80
I190
tg141
tp146
a((I100
I190
tg141
tp147
a((I120
I190
tg141
tp148
a((I140
I180
tg141
tp149
a((I120
I180
tg141
tp150
a((I140
I170
tg141
tp151
a((I140
I160
tg141
tp152
a((I160
I160
tg141
tp153
a((I160
I150
tg141
tp154
a((I160
I130
tg141
tp155
a((I160
I140
tg141
tp156
a((I160
I120
tg141
tp157
a((I140
I120
tg141
tp158
a((I140
I110
tg141
tp159
a((I140
I100
tg141
tp160
a((I140
I90
tg141
tp161
a((I120
I90
tg141
tp162
a((I120
I80
tg141
tp163
a((I100
I90
tg141
tp164
a((I80
I100
tg141
tp165
a((I100
I100
tg141
tp166
a((I80
I110
tg141
tp167
a((I80
I120
tg141
tp168
a((I80
I130
tg141
tp169
a((I100
I130
tg141
tp170
a((I100
I140
tg141
tp171
a((I100
I150
tg141
tp172
a((I100
I160
tg141
tp173
a((I100
I170
tg141
tp174
a((I100
I210
tg141
tp175
a((I100
I230
tg141
tp176
a((I100
I220
tg141
tp177
a((I120
I210
tg141
tp178
a((I120
I230
tg141
tp179
a((I120
I220
tg141
tp180
a((I120
I240
tg141
tp181
a((I140
I240
tg141
tp182
a((I140
I250
tg141
tp183
a((I160
I250
tg141
tp184
a((I180
I260
tg141
tp185
a((I180
I270
tg141
tp186
a((I180
I280
tg141
tp187
a((I200
I280
tg141
tp188
a((I200
I290
tg141
tp189
a((I200
I300
tg141
tp190
a((I220
I300
tg141
tp191
a((I220
I310
tg141
tp192
a((I200
I310
tg141
tp193
a((I180
I310
tg141
tp194
a((I160
I310
tg141
tp195
a((I160
I320
tg141
tp196
a((I140
I320
tg141
tp197
a((I120
I320
tg141
tp198
a((I100
I320
tg141
tp199
a((I100
I330
tg141
tp200
a((I100
I310
tg141
tp201
a((I100
I300
tg141
tp202
a((I100
I290
tg141
tp203
a((I100
I270
tg141
tp204
a((I100
I260
tg141
tp205
a((I100
I240
tg141
tp206
a((I100
I280
tg141
tp207
a((I100
I250
tg141
tp208
a((I240
I290
tg141
tp209
a((I260
I290
tg141
tp210
a((I280
I290
tg141
tp211
a((I280
I300
tg141
tp212
a((I300
I290
tg141
tp213
a((I320
I290
tg141
tp214
a((I320
I250
tg141
tp215
a((I300
I250
tg141
tp216
a((I300
I240
tg141
tp217
a((I280
I240
tg141
tp218
a((I280
I230
tg141
tp219
a((I280
I220
tg141
tp220
a((I280
I210
tg141
tp221
a((I280
I200
tg141
tp222
a((I300
I200
tg141
tp223
a((I320
I200
tg141
tp224
a((I320
I190
tg141
tp225
a((I320
I180
tg141
tp226
a((I320
I170
tg141
tp227
a((I320
I160
tg141
tp228
a((I320
I140
tg141
tp229
a((I320
I150
tg141
tp230
a((I320
I130
tg141
tp231
a((I340
I130
tg141
tp232
a((I340
I120
tg141
tp233
a((I340
I110
tg141
tp234
a((I360
I110
tg141
tp235
a((I360
I100
tg141
tp236
a((I360
I80
tg141
tp237
a((I360
I90
tg141
tp238
a((I340
I90
tg141
tp239
a((I340
I100
tg141
tp240
a((I320
I100
tg141
tp241
a((I320
I110
tg141
tp242
a((I300
I110
tg141
tp243
a((I300
I120
tg141
tp244
a((I280
I120
tg141
tp245
a((I280
I130
tg141
tp246
a((I260
I130
tg141
tp247
a((I260
I140
tg141
tp248
a((I240
I140
tg141
tp249
a((I240
I150
tg141
tp250
a((I220
I150
tg141
tp251
a((I200
I150
tg141
tp252
a((I200
I160
tg141
tp253
a((I180
I170
tg141
tp254
a((I200
I170
tg141
tp255
a((I180
I180
tg141
tp256
a((I180
I190
tg141
tp257
a((I160
I190
tg141
tp258
a((I160
I200
tg141
tp259
a((I160
I220
tg141
tp260
a((I160
I230
tg141
tp261
a((I160
I210
tg141
tp262
a((I180
I230
tg141
tp263
a((I180
I240
tg141
tp264
a((I200
I240
tg141
tp265
a((I220
I250
tg141
tp266
a((I220
I240
tg141
tp267
a((I220
I260
tg141
tp268
a((I240
I260
tg141
tp269
a((I240
I280
tg141
tp270
a((I240
I270
tg141
tp271
a((I340
I300
tg141
tp272
a((I360
I290
t(I192
I192
I192
ttp273
a((I320
I260
t(I0
I128
I0
tp274
tp275
a((I320
I270
tg274
tp276
a((I340
I270
tg274
tp277
a((I340
I280
tg274
tp278
a((I320
I280
tg274
tp279
a((I360
I300
tg274
tp280
a((I380
I290
tg274
tp281
a((I380
I300
tg274
tp282
a((I400
I300
tg274
tp283
a((I380
I280
tg274
tp284
a((I380
I270
tg274
tp285
a((I380
I260
tg274
tp286
a((I360
I260
tg274
tp287
a((I360
I250
tg274
tp288
a((I360
I240
tg274
tp289
a((I360
I230
tg274
tp290
a((I340
I230
tg274
tp291
a((I320
I230
tg274
tp292
a((I320
I220
tg274
tp293
a((I340
I210
tg274
tp294
a((I340
I220
tg274
tp295
a((I360
I210
tg274
tp296
a((I360
I200
tg274
tp297
a((I360
I190
tg274
tp298
a((I360
I180
tg274
tp299
a((I360
I170
tg274
tp300
a((I360
I160
tg274
tp301
a((I360
I150
tg274
tp302
a((I360
I140
tg274
tp303
a((I380
I140
tg274
tp304
a((I380
I130
tg274
tp305
a((I380
I120
tg274
tp306
a((I400
I110
tg274
tp307
a((I400
I90
tg274
tp308
a((I400
I80
tg274
tp309
a((I400
I100
tg274
tp310
a((I400
I120
tg274
tp311
a((I420
I80
tg274
tp312
a((I420
I90
tg274
tp313
a((I440
I90
tg274
tp314
a((I440
I100
tg274
tp315
a((I460
I100
tg274
tp316
a((I460
I110
tg274
tp317
a((I480
I110
tg274
tp318
a((I500
I110
tg274
tp319
a((I500
I120
tg274
tp320
a((I520
I120
tg274
tp321
a((I520
I130
tg274
tp322
a((I540
I130
tg274
tp323
a((I520
I140
tg274
tp324
a((I500
I140
tg274
tp325
a((I500
I150
tg274
tp326
a((I480
I150
tg274
tp327
a((I480
I160
tg274
tp328
a((I460
I160
tg274
tp329
a((I460
I170
tg274
tp330
a((I460
I180
tg274
tp331
a((I460
I190
tg274
tp332
a((I440
I190
tg274
tp333
a((I440
I200
tg274
tp334
a((I420
I200
tg274
tp335
a((I420
I210
tg274
tp336
a((I400
I210
tg274
tp337
a((I400
I220
tg274
tp338
a((I400
I230
tg274
tp339
a((I420
I230
tg274
tp340
a((I440
I240
tg274
tp341
a((I420
I240
tg274
tp342
a((I440
I250
tg274
tp343
a((I460
I250
tg274
tp344
a((I460
I260
tg274
tp345
a((I480
I260
tg274
tp346
a((I480
I270
tg274
tp347
a((I480
I280
tg274
tp348
a((I460
I290
tg274
tp349
a((I460
I280
tg274
tp350
a((I440
I290
tg274
tp351
a((I440
I300
tg274
tp352
a((I420
I300
tg274
tp353
a((I100
I180
t(I255
I128
I0
tp354
tp355
a((I120
I170
tg354
tp356
a((I120
I160
tg354
tp357
a((I120
I150
tg354
tp358
a((I120
I140
tg354
tp359
a((I120
I120
tg354
tp360
a((I120
I100
tg354
tp361
a((I100
I110
tg354
tp362
a((I120
I110
tg354
tp363
a((I100
I120
tg354
tp364
a((I120
I130
tg354
tp365
a((I140
I130
tg354
tp366
a((I140
I140
tg354
tp367
a((I140
I150
tg354
tp368
a((I120
I250
tg354
tp369
a((I120
I260
tg354
tp370
a((I120
I270
tg354
tp371
a((I120
I310
tg354
tp372
a((I140
I310
tg354
tp373
a((I160
I300
tg354
tp374
a((I180
I300
tg354
tp375
a((I180
I290
tg354
tp376
a((I160
I290
tg354
tp377
a((I160
I280
tg354
tp378
a((I160
I270
tg354
tp379
a((I140
I270
tg354
tp380
a((I140
I260
tg354
tp381
a((I160
I260
t(I0
I128
I0
ttp382
a((I140
I300
t(I255
I128
I0
tp383
tp384
a((I120
I300
tg383
tp385
a((I120
I280
tg383
tp386
a((I120
I290
tg383
tp387
a((I140
I290
tg383
tp388
a((I140
I280
tg383
tp389
a((I320
I120
tg383
tp390
a((I300
I130
tg383
tp391
a((I300
I140
tg383
tp392
a((I300
I150
tg383
tp393
a((I300
I160
tg383
tp394
a((I300
I170
tg383
tp395
a((I300
I180
tg383
tp396
a((I300
I190
tg383
tp397
a((I280
I190
tg383
tp398
a((I280
I180
tg383
tp399
a((I280
I170
tg383
tp400
a((I280
I160
tg383
tp401
a((I280
I140
tg383
tp402
a((I280
I150
tg383
tp403
a((I260
I150
tg383
tp404
a((I260
I160
tg383
tp405
a((I240
I160
tg383
tp406
a((I220
I160
tg383
tp407
a((I220
I170
tg383
tp408
a((I220
I180
tg383
tp409
a((I200
I180
tg383
tp410
a((I200
I190
tg383
tp411
a((I200
I200
tg383
tp412
a((I180
I200
tg383
tp413
a((I180
I220
tg383
tp414
a((I200
I220
tg383
tp415
a((I180
I210
tg383
tp416
a((I200
I230
tg383
tp417
a((I220
I230
tg383
tp418
a((I240
I230
tg383
tp419
a((I240
I240
tg383
tp420
a((I240
I250
tg383
tp421
a((I260
I250
tg383
tp422
a((I260
I260
tg383
tp423
a((I260
I270
tg383
tp424
a((I260
I280
tg383
tp425
a((I280
I280
tg383
tp426
a((I300
I280
tg383
tp427
a((I300
I270
tg383
tp428
a((I300
I260
tg383
tp429
a((I280
I260
tg383
tp430
a((I280
I250
tg383
tp431
a((I260
I190
tg383
tp432
a((I260
I200
tg383
tp433
a((I260
I210
tg383
tp434
a((I260
I220
tg383
tp435
a((I260
I230
tg383
tp436
a((I260
I240
tg383
tp437
a((I280
I270
tg383
tp438
a((I200
I210
tg383
tp439
a((I220
I190
tg383
tp440
a((I220
I200
tg383
tp441
a((I220
I210
tg383
tp442
a((I220
I220
tg383
tp443
a((I240
I220
tg383
tp444
a((I240
I210
tg383
tp445
a((I240
I200
tg383
tp446
a((I240
I190
tg383
tp447
a((I240
I180
tg383
tp448
a((I240
I170
tg383
tp449
a((I260
I170
tg383
tp450
a((I260
I180
tg383
tp451
a((I400
I290
tg383
tp452
a((I420
I290
tg383
tp453
a((I420
I280
tg383
tp454
a((I440
I280
tg383
tp455
a((I460
I270
tg383
tp456
a((I440
I270
tg383
tp457
a((I440
I260
tg383
tp458
a((I420
I260
tg383
tp459
a((I420
I250
tg383
tp460
a((I400
I250
tg383
tp461
a((I400
I240
tg383
tp462
a((I380
I240
tg383
tp463
a((I380
I230
tg383
tp464
a((I380
I220
tg383
tp465
a((I360
I220
tg383
tp466
a((I380
I210
tg383
tp467
a((I380
I190
tg383
tp468
a((I380
I180
tg383
tp469
a((I380
I160
tg383
tp470
a((I380
I150
tg383
tp471
a((I380
I250
tg383
tp472
a((I400
I260
tg383
tp473
a((I400
I270
tg383
tp474
a((I400
I280
tg383
tp475
a((I420
I270
tg383
tp476
a((I380
I200
tg383
tp477
a((I380
I170
tg383
tp478
a((I400
I150
tg383
tp479
a((I400
I140
tg383
tp480
a((I400
I130
tg383
tp481
a((I420
I130
tg383
tp482
a((I420
I110
tg383
tp483
a((I420
I100
tg383
tp484
a((I420
I120
tg383
tp485
a((I440
I110
tg383
tp486
a((I440
I120
tg383
tp487
a((I460
I120
tg383
tp488
a((I480
I120
tg383
tp489
a((I480
I130
tg383
tp490
a((I500
I130
tg383
tp491
a((I480
I140
tg383
tp492
a((I460
I140
tg383
tp493
a((I460
I150
tg383
tp494
a((I440
I150
tg383
tp495
a((I440
I160
tg383
tp496
a((I440
I170
tg383
tp497
a((I440
I180
tg383
tp498
a((I420
I180
tg383
tp499
a((I420
I190
tg383
tp500
a((I400
I190
tg383
tp501
a((I400
I200
tg383
tp502
a((I400
I180
tg383
tp503
a((I400
I170
tg383
tp504
a((I400
I160
tg383
tp505
a((I420
I150
tg383
tp506
a((I420
I170
tg383
tp507
a((I420
I160
tg383
tp508
a((I420
I140
tg383
tp509
a((I440
I140
tg383
tp510
a((I440
I130
tg383
tp511
a((I460
I130
tg383
tp512
a((I0
I370
t(I0
I0
I255
tp513
tp514
a((I20
I370
tg513
tp515
a((I40
I370
tg513
tp516
a((I60
I370
tg513
tp517
a((I80
I370
tg513
tp518
a((I100
I370
tg513
tp519
a((I140
I370
tg513
tp520
a((I160
I370
tg513
tp521
a((I120
I370
tg513
tp522
a((I180
I370
tg513
tp523
a((I200
I370
tg513
tp524
a((I220
I370
tg513
tp525
a((I240
I370
tg513
tp526
a((I260
I370
tg513
tp527
a((I280
I370
tg513
tp528
a((I300
I370
tg513
tp529
a((I320
I370
tg513
tp530
a((I340
I370
tg513
tp531
a((I360
I370
tg513
tp532
a((I400
I370
tg513
tp533
a((I380
I370
tg513
tp534
a((I420
I370
tg513
tp535
a((I440
I370
tg513
tp536
a((I460
I370
tg513
tp537
a((I480
I370
tg513
tp538
a((I500
I370
tg513
tp539
a((I520
I370
tg513
tp540
a((I540
I370
tg513
tp541
a((I560
I370
tg513
tp542
a((I580
I370
tg513
tp543
a((I600
I370
tg513
tp544
a((I620
I370
tg513
tp545
a((I620
I130
tg513
tp546
a((I600
I130
tg513
tp547
a((I60
I150
tg513
tp548
a((I40
I150
tg513
tp549
a((I20
I150
tg513
tp550
a((I0
I150
tg513
tp551
a((I0
I350
tg513
tp552
a((I40
I320
tg513
tp553
a((I0
I250
tg513
tp554
a((I20
I210
tg513
tp555
a((I20
I170
tg513
tp556
a((I40
I250
tg513
tp557
a((I0
I280
tg513
tp558
a((I20
I300
tg513
tp559
a((I20
I260
tg513
tp560
a((I20
I250
tg513
tp561
a((I20
I230
tg513
tp562
a((I0
I230
tg513
tp563
a((I0
I200
tg513
tp564
a((I0
I170
tg513
tp565
a((I20
I190
tg513
tp566
a((I40
I180
tg513
tp567
a((I40
I160
tg513
tp568
a((I60
I160
tg513
tp569
a((I0
I160
tg513
tp570
a((I20
I160
tg513
tp571
a((I40
I220
tg513
tp572
a((I60
I240
tg513
tp573
a((I60
I280
tg513
tp574
a((I60
I300
tg513
tp575
a((I20
I340
tg513
tp576
a((I20
I320
tg513
tp577
a((I60
I350
tg513
tp578
a((I40
I350
tg513
tp579
a((I20
I360
tg513
tp580
a((I80
I350
tg513
tp581
a((I80
I360
tg513
tp582
a((I60
I360
tg513
tp583
a((I40
I360
tg513
tp584
a((I0
I360
tg513
tp585
a((I20
I350
tg513
tp586
a((I60
I330
tg513
tp587
a((I40
I340
tg513
tp588
a((I40
I330
tg513
tp589
a((I20
I330
tg513
tp590
a((I0
I330
tg513
tp591
a((I0
I340
tg513
tp592
a((I0
I320
tg513
tp593
a((I0
I310
tg513
tp594
a((I0
I300
tg513
tp595
a((I0
I290
tg513
tp596
a((I20
I290
tg513
tp597
a((I20
I280
tg513
tp598
a((I20
I270
tg513
tp599
a((I0
I270
tg513
tp600
a((I0
I260
tg513
tp601
a((I40
I260
tg513
tp602
a((I40
I280
tg513
tp603
a((I40
I270
tg513
tp604
a((I40
I290
tg513
tp605
a((I40
I310
tg513
tp606
a((I20
I310
tg513
tp607
a((I40
I300
tg513
tp608
a((I60
I310
tg513
tp609
a((I60
I320
tg513
tp610
a((I60
I340
tg513
tp611
a((I60
I290
tg513
tp612
a((I60
I270
tg513
tp613
a((I60
I260
tg513
tp614
a((I60
I250
tg513
tp615
a((I60
I230
tg513
tp616
a((I40
I230
tg513
tp617
a((I40
I240
tg513
tp618
a((I20
I240
tg513
tp619
a((I0
I240
tg513
tp620
a((I0
I220
tg513
tp621
a((I20
I220
tg513
tp622
a((I40
I210
tg513
tp623
a((I60
I210
tg513
tp624
a((I60
I220
tg513
tp625
a((I40
I200
tg513
tp626
a((I20
I200
tg513
tp627
a((I40
I190
tg513
tp628
a((I40
I170
tg513
tp629
a((I20
I180
tg513
tp630
a((I0
I180
tg513
tp631
a((I0
I190
tg513
tp632
a((I0
I210
tg513
tp633
a((I500
I300
tg513
tp634
a((I500
I320
tg513
tp635
a((I500
I290
tg513
tp636
a((I500
I310
tg513
tp637
a((I500
I330
tg513
tp638
a((I500
I340
tg513
tp639
a((I500
I360
tg513
tp640
a((I500
I350
tg513
tp641
a((I460
I350
tg513
tp642
a((I440
I340
tg513
tp643
a((I380
I340
tg513
tp644
a((I340
I350
tg513
tp645
a((I300
I360
tg513
tp646
a((I280
I350
tg513
tp647
a((I240
I340
tg513
tp648
a((I200
I350
tg513
tp649
a((I160
I350
tg513
tp650
a((I120
I350
tg513
tp651
a((I300
I330
tg513
tp652
a((I280
I330
tg513
tp653
a((I260
I350
tg513
tp654
a((I220
I360
tg513
tp655
a((I220
I340
tg513
tp656
a((I180
I330
tg513
tp657
a((I180
I350
tg513
tp658
a((I180
I340
tg513
tp659
a((I140
I340
tg513
tp660
a((I140
I350
tg513
tp661
a((I160
I340
tg513
tp662
a((I120
I340
tg513
tp663
a((I100
I350
tg513
tp664
a((I100
I360
tg513
tp665
a((I200
I360
tg513
tp666
a((I180
I360
tg513
tp667
a((I160
I360
tg513
tp668
a((I140
I360
tg513
tp669
a((I120
I360
tg513
tp670
a((I220
I350
tg513
tp671
a((I240
I350
tg513
tp672
a((I240
I360
tg513
tp673
a((I260
I360
tg513
tp674
a((I280
I360
tg513
tp675
a((I300
I340
tg513
tp676
a((I320
I340
tg513
tp677
a((I320
I330
tg513
tp678
a((I320
I320
tg513
tp679
a((I300
I320
tg513
tp680
a((I280
I320
tg513
tp681
a((I260
I320
tg513
tp682
a((I240
I320
tg513
tp683
a((I240
I330
tg513
tp684
a((I220
I330
tg513
tp685
a((I200
I330
tg513
tp686
a((I200
I340
tg513
tp687
a((I260
I330
tg513
tp688
a((I260
I340
tg513
tp689
a((I280
I340
tg513
tp690
a((I300
I350
tg513
tp691
a((I320
I350
tg513
tp692
a((I320
I360
tg513
tp693
a((I340
I360
tg513
tp694
a((I360
I360
tg513
tp695
a((I360
I350
tg513
tp696
a((I360
I330
tg513
tp697
a((I340
I340
tg513
tp698
a((I340
I320
tg513
tp699
a((I360
I320
tg513
tp700
a((I340
I330
tg513
tp701
a((I360
I340
tg513
tp702
a((I380
I330
tg513
tp703
a((I380
I310
tg513
tp704
a((I380
I310
t(I192
I192
I192
ttp705
a((I400
I360
t(I0
I0
I255
tp706
tp707
a((I380
I350
tg706
tp708
a((I380
I360
tg706
tp709
a((I400
I350
tg706
tp710
a((I400
I340
tg706
tp711
a((I400
I330
tg706
tp712
a((I380
I320
tg706
tp713
a((I400
I320
tg706
tp714
a((I420
I320
tg706
tp715
a((I480
I300
tg706
tp716
a((I460
I310
tg706
tp717
a((I440
I320
tg706
tp718
a((I420
I330
tg706
tp719
a((I420
I340
tg706
tp720
a((I480
I330
tg706
tp721
a((I440
I350
tg706
tp722
a((I420
I360
tg706
tp723
a((I480
I360
tg706
tp724
a((I460
I340
tg706
tp725
a((I480
I320
tg706
tp726
a((I460
I320
tg706
tp727
a((I460
I330
tg706
tp728
a((I480
I350
tg706
tp729
a((I480
I340
tg706
tp730
a((I460
I360
tg706
tp731
a((I440
I360
tg706
tp732
a((I420
I350
tg706
tp733
a((I440
I330
tg706
tp734
a((I480
I310
tg706
tp735
a((I580
I230
tg706
tp736
a((I520
I200
tg706
tp737
a((I560
I280
tg706
tp738
a((I560
I350
tg706
tp739
a((I580
I330
tg706
tp740
a((I580
I290
tg706
tp741
a((I540
I330
tg706
tp742
a((I540
I260
tg706
tp743
a((I600
I240
tg706
tp744
a((I600
I190
tg706
tp745
a((I580
I160
tg706
tp746
a((I560
I180
tg706
tp747
a((I540
I170
tg706
tp748
a((I500
I200
tg706
tp749
a((I480
I230
tg706
tp750
a((I460
I220
tg706
tp751
a((I500
I220
tg706
tp752
a((I520
I250
tg706
tp753
a((I560
I200
tg706
tp754
a((I540
I200
tg706
tp755
a((I540
I240
tg706
tp756
a((I580
I250
tg706
tp757
a((I600
I280
tg706
tp758
a((I600
I310
tg706
tp759
a((I600
I330
tg706
tp760
a((I620
I320
tg706
tp761
a((I620
I290
tg706
tp762
a((I620
I270
tg706
tp763
a((I620
I250
tg706
tp764
a((I620
I230
tg706
tp765
a((I620
I210
tg706
tp766
a((I620
I200
tg706
tp767
a((I620
I180
tg706
tp768
a((I620
I160
tg706
tp769
a((I620
I140
tg706
tp770
a((I580
I150
tg706
tp771
a((I600
I160
tg706
tp772
a((I580
I180
tg706
tp773
a((I600
I170
tg706
tp774
a((I580
I170
tg706
tp775
a((I560
I160
tg706
tp776
a((I520
I170
tg706
tp777
a((I520
I190
tg706
tp778
a((I540
I300
tg706
tp779
a((I560
I310
tg706
tp780
a((I520
I270
tg706
tp781
a((I520
I310
tg706
tp782
a((I520
I350
tg706
tp783
a((I540
I350
tg706
tp784
a((I600
I340
tg706
tp785
a((I600
I350
tg706
tp786
a((I620
I350
tg706
tp787
a((I620
I330
tg706
tp788
a((I620
I360
tg706
tp789
a((I580
I360
tg706
tp790
a((I580
I340
tg706
tp791
a((I560
I340
tg706
tp792
a((I560
I320
tg706
tp793
a((I540
I310
tg706
tp794
a((I520
I330
tg706
tp795
a((I540
I340
tg706
tp796
a((I560
I330
tg706
tp797
a((I580
I310
tg706
tp798
a((I560
I290
tg706
tp799
a((I540
I280
tg706
tp800
a((I560
I260
tg706
tp801
a((I560
I240
tg706
tp802
a((I560
I220
tg706
tp803
a((I540
I220
tg706
tp804
a((I520
I230
tg706
tp805
a((I500
I240
tg706
tp806
a((I580
I210
tg706
tp807
a((I580
I200
tg706
tp808
a((I580
I190
tg706
tp809
a((I540
I190
tg706
tp810
a((I540
I180
tg706
tp811
a((I560
I170
tg706
tp812
a((I560
I140
tg706
tp813
a((I540
I150
tg706
tp814
a((I540
I160
tg706
tp815
a((I560
I150
tg706
tp816
a((I580
I140
tg706
tp817
a((I600
I140
tg706
tp818
a((I600
I150
tg706
tp819
a((I620
I150
tg706
tp820
a((I620
I170
tg706
tp821
a((I620
I190
tg706
tp822
a((I600
I180
tg706
tp823
a((I560
I190
tg706
tp824
a((I600
I200
tg706
tp825
a((I600
I220
tg706
tp826
a((I600
I230
tg706
tp827
a((I600
I210
tg706
tp828
a((I580
I220
tg706
tp829
a((I560
I210
tg706
tp830
a((I540
I210
tg706
tp831
a((I520
I210
tg706
tp832
a((I500
I210
tg706
tp833
a((I480
I200
tg706
tp834
a((I480
I210
tg706
tp835
a((I460
I210
tg706
tp836
a((I480
I220
tg706
tp837
a((I500
I230
tg706
tp838
a((I520
I240
tg706
tp839
a((I520
I220
tg706
tp840
a((I540
I230
tg706
tp841
a((I560
I230
tg706
tp842
a((I580
I240
tg706
tp843
a((I580
I260
tg706
tp844
a((I580
I270
tg706
tp845
a((I600
I270
tg706
tp846
a((I600
I250
tg706
tp847
a((I600
I260
tg706
tp848
a((I620
I260
tg706
tp849
a((I620
I240
tg706
tp850
a((I620
I220
tg706
tp851
a((I620
I280
tg706
tp852
a((I620
I300
tg706
tp853
a((I620
I310
tg706
tp854
a((I600
I300
tg706
tp855
a((I600
I290
tg706
tp856
a((I560
I300
tg706
tp857
a((I520
I290
tg706
tp858
a((I520
I300
tg706
tp859
a((I540
I290
tg706
tp860
a((I520
I280
tg706
tp861
a((I520
I260
tg706
tp862
a((I540
I250
tg706
tp863
a((I560
I250
tg706
tp864
a((I560
I270
tg706
tp865
a((I540
I270
tg706
tp866
a((I580
I280
tg706
tp867
a((I580
I300
tg706
tp868
a((I580
I320
tg706
tp869
a((I600
I320
tg706
tp870
a((I540
I320
tg706
tp871
a((I520
I320
tg706
tp872
a((I520
I340
tg706
tp873
a((I520
I360
tg706
tp874
a((I540
I360
tg706
tp875
a((I560
I360
tg706
tp876
a((I580
I350
tg706
tp877
a((I600
I360
tg706
tp878
a((I620
I340
tg706
tp879
a((I0
I140
t(I128
I128
I0
tp880
tp881
a((I20
I140
tg880
tp882
a((I40
I140
tg880
tp883
a((I60
I140
tg880
tp884
a((I600
I120
tg880
tp885
a((I620
I120
tg880
tp886
a((I580
I120
tg880
tp887
a((I560
I120
tg880
tp888
a((I40
I130
t(I102
I102
I0
tp889
tp890
a((I20
I130
tg889
tp891
a((I0
I130
tg889
tp892
a((I540
I110
tg889
tp893
a((I560
I110
tg889
tp894
a((I580
I110
tg889
tp895
a((I600
I110
tg889
tp896
a((I620
I110
tg889
tp897
a((I520
I100
t(I66
I66
I0
tp898
tp899
a((I540
I100
tg898
tp900
a((I560
I100
tg898
tp901
a((I580
I100
tg898
tp902
a((I600
I100
tg898
tp903
a((I620
I100
tg898
tp904
a((I40
I120
tg898
tp905
a((I20
I120
tg898
tp906
a((I0
I120
tg898
tp907
a((I40
I110
t(I32
I32
I0
tp908
tp909
a((I20
I110
tg908
tp910
a((I0
I110
tg908
tp911
a((I480
I90
tg908
tp912
a((I500
I90
tg908
tp913
a((I520
I90
tg908
tp914
a((I540
I90
tg908
tp915
a((I560
I90
tg908
tp916
a((I580
I90
tg908
tp917
a((I600
I90
tg908
tp918
a((I620
I90
tg908
tp919
a((I40
I100
t(I21
I21
I0
tp920
tp921
a((I20
I100
tg920
tp922
a((I0
I100
tg920
tp923
a((I460
I80
tg920
tp924
a((I480
I80
tg920
tp925
a((I500
I80
tg920
tp926
a((I520
I80
tg920
tp927
a((I540
I80
tg920
tp928
a((I560
I80
tg920
tp929
a((I580
I80
tg920
tp930
a((I600
I80
tg920
tp931
a((I620
I80
tg920
tp932
a((I500
I170
t(I0
I0
I255
tp933
tp934
a((I500
I180
tg933
tp935
a((I520
I180
tg933
tp936
a((I500
I190
tg933
tp937
a((I460
I230
tg933
tp938
a((I440
I220
tg933
tp939
a((I480
I240
tg933
tp940
a((I500
I250
tg933
tp941
a.